; Function Attrs: mustprogress nounwind uwtable
define void @_ZN7Imf_3_217ScanLineInputFileD2Ev(ptr noundef nonnull align 8 dereferenceable(24) %this) unnamed_addr #4 align 2 personality ptr @__gxx_personality_v0 {
entry:
  store ptr getelementptr inbounds ({ [4 x ptr] }, ptr @_ZTVN7Imf_3_217ScanLineInputFileE, i64 0, i32 0, i64 2), ptr %this, align 8
  %_data = getelementptr inbounds i8, ptr %this, i64 8
  %0 = load ptr, ptr %_data, align 8
  %memoryMapped = getelementptr inbounds i8, ptr %0, i64 324
  %1 = load i8, ptr %memoryMapped, align 4
  %2 = and i8 %1, 1
  %tobool.not = icmp eq i8 %2, 0
  br i1 %tobool.not, label %for.cond.preheader, label %if.end

for.cond.preheader:                               ; preds = %entry
  %lineBuffers6 = getelementptr inbounds i8, ptr %0, i64 280
  %lineBuffers.val7 = load ptr, ptr %lineBuffers6, align 8
  %3 = getelementptr i8, ptr %0, i64 288
  %lineBuffers.val48 = load ptr, ptr %3, align 8
  %cmp13.not = icmp eq ptr %lineBuffers.val48, %lineBuffers.val7
  br i1 %cmp13.not, label %if.end, label %for.body

for.body:                                         ; preds = %for.cond.preheader, %for.body
  %lineBuffers.val15 = phi ptr [ %lineBuffers.val, %for.body ], [ %lineBuffers.val7, %for.cond.preheader ]
  %i.014 = phi i64 [ %inc, %for.body ], [ 0, %for.cond.preheader ]
  %add.ptr.i = getelementptr inbounds ptr, ptr %lineBuffers.val15, i64 %i.014
  %4 = load ptr, ptr %add.ptr.i, align 8
  %buffer = getelementptr inbounds i8, ptr %4, i64 8
  %5 = load ptr, ptr %buffer, align 8
  tail call void @free(ptr noundef %5) #28
  %inc = add nuw i64 %i.014, 1
  %6 = load ptr, ptr %_data, align 8
  %lineBuffers = getelementptr inbounds i8, ptr %6, i64 280
  %lineBuffers.val = load ptr, ptr %lineBuffers, align 8
  %7 = getelementptr i8, ptr %6, i64 288
  %lineBuffers.val4 = load ptr, ptr %7, align 8
  %sub.ptr.lhs.cast.i = ptrtoint ptr %lineBuffers.val4 to i64
  %sub.ptr.rhs.cast.i = ptrtoint ptr %lineBuffers.val to i64
  %sub.ptr.sub.i = sub i64 %sub.ptr.lhs.cast.i, %sub.ptr.rhs.cast.i
  %sub.ptr.div.i = ashr exact i64 %sub.ptr.sub.i, 3
  %cmp = icmp ult i64 %inc, %sub.ptr.div.i
  br i1 %cmp, label %for.body, label %if.end, !llvm.loop !14

if.end:                                           ; preds = %for.body, %for.cond.preheader, %entry
  %8 = phi ptr [ %0, %for.cond.preheader ], [ %0, %entry ], [ %6, %for.body ]
  %partNumber = getelementptr inbounds i8, ptr %8, i64 320
  %9 = load i32, ptr %partNumber, align 8
  %cmp7 = icmp eq i32 %9, -1
  br i1 %cmp7, label %if.then8, label %delete.notnull12

if.then8:                                         ; preds = %if.end
  %_streamData = getelementptr inbounds i8, ptr %this, i64 16
  %10 = load ptr, ptr %_streamData, align 8
  %isnull = icmp eq ptr %10, null
  br i1 %isnull, label %delete.notnull12, label %if.end9

if.end9:                                          ; preds = %if.then8
  tail call void @_ZdlPv(ptr noundef nonnull %10) #30
  %.pr.pre = load ptr, ptr %_data, align 8
  %isnull11 = icmp eq ptr %.pr.pre, null
  br i1 %isnull11, label %delete.end13, label %delete.notnull12

delete.notnull12:                                 ; preds = %if.then8, %if.end, %if.end9
  %11 = phi ptr [ %.pr.pre, %if.end9 ], [ %8, %if.end ], [ %8, %if.then8 ]
  tail call void @_ZN7Imf_3_217ScanLineInputFile4DataD2Ev(ptr noundef nonnull align 8 dereferenceable(360) %11) #28
  tail call void @_ZdlPv(ptr noundef nonnull %11) #30
  br label %delete.end13

delete.end13:                                     ; preds = %delete.notnull12, %if.end9
  tail call void @_ZN7Imf_3_216GenericInputFileD2Ev(ptr noundef nonnull align 8 dereferenceable(8) %this) #28
  ret void
}